(lp0
(S'cppflags'
p1
ccopy_reg
_reconstructor
p2
(cino.utils
SpaceList
p3
c__builtin__
list
p4
(lp5
S'-mmcu=atmega328p'
p6
aS'-DF_CPU=16000000L'
p7
aS'-DARDUINO=105'
p8
aS'-I/Applications/Arduino.app/Contents/Resources/Java/hardware/arduino/cores/arduino'
p9
aS'-ffunction-sections'
p10
aS'-fdata-sections'
p11
aS'-g'
p12
aS'-Os'
p13
aS'-w'
p14
aS'-I/Applications/Arduino.app/Contents/Resources/Java/hardware/arduino/variants/standard'
p15
atp16
Rp17
tp18
a(S'version.txt'
p19
S'/Applications/Arduino.app/Contents/Resources/Java/lib/version.txt'
p20
tp21
a(S'cc'
p22
S'/Applications/Arduino.app/Contents/Resources/Java/hardware/tools/avr/bin/avr-gcc'
p23
tp24
a(S'make'
p25
S'/Applications/Arduino.app/Contents/Resources/Java/hardware/tools/avr/bin/make'
p26
tp27
a(S'build_dir'
p28
S'.build/uno'
p29
tp30
a(S'arduino_core_dir'
p31
S'/Applications/Arduino.app/Contents/Resources/Java/hardware/arduino/cores/arduino'
p32
tp33
a(S'boards.txt'
p34
S'/Applications/Arduino.app/Contents/Resources/Java/hardware/arduino/boards.txt'
p35
tp36
a(S'cxxflags'
p37
g2
(g3
g4
(lp38
S'-fno-exceptions'
p39
atp40
Rp41
tp42
a(S'arduino_variants_dir'
p43
S'/Applications/Arduino.app/Contents/Resources/Java/hardware/arduino/variants'
p44
tp45
a(S'deps'
p46
g2
(g3
g4
(lp47
tp48
Rp49
tp50
a(S'ar'
p51
S'/Applications/Arduino.app/Contents/Resources/Java/hardware/tools/avr/bin/avr-ar'
p52
tp53
a(S'names'
p54
(dp55
S'cpp'
p56
S'%s.cpp'
p57
sS'obj'
p58
S'%s.o'
p59
sg46
S'%s.d'
p60
sS'lib'
p61
S'lib%s.a'
p62
stp63
a(S'cflags'
p64
g2
(g3
g4
(lp65
tp66
Rp67
tp68
a(S'ldflags'
p69
g2
(g3
g4
(lp70
g6
aS'-Wl,-Os'
p71
aS'-Wl,--gc-sections'
p72
atp73
Rp74
tp75
a(S'arduino_libraries_dir'
p76
S'/Applications/Arduino.app/Contents/Resources/Java/libraries'
p77
tp78
a(S'arduino_lib_version'
p79
g2
(cino.environment
Version
p80
c__builtin__
tuple
p81
(I1
I0
I5
tp82
tp83
Rp84
tp85
a(S'objcopy'
p86
S'/Applications/Arduino.app/Contents/Resources/Java/hardware/tools/avr/bin/avr-objcopy'
p87
tp88
a(S'board_models'
p89
cino.environment
BoardModels
p90
((lp91
(lp92
S'uno'
p93
a(dp94
S'build'
p95
(dp96
S'core'
p97
S'arduino'
p98
sS'mcu'
p99
S'atmega328p'
p100
sS'f_cpu'
p101
S'16000000L'
p102
sS'variant'
p103
S'standard'
p104
ssS'bootloader'
p105
(dp106
S'extended_fuses'
p107
S'0x05'
p108
sS'high_fuses'
p109
S'0xde'
p110
sS'low_fuses'
p111
S'0xff'
p112
sS'lock_bits'
p113
S'0x0F'
p114
sS'file'
p115
S'optiboot_atmega328.hex'
p116
sS'path'
p117
S'optiboot'
p118
sS'unlock_bits'
p119
S'0x3F'
p120
ssS'name'
p121
S'Arduino Uno'
p122
sS'upload'
p123
(dp124
S'speed'
p125
S'115200'
p126
sS'maximum_size'
p127
S'32256'
p128
sS'protocol'
p129
S'arduino'
p130
ssaa(lp131
S'atmega328'
p132
a(dp133
S'build'
p134
(dp135
S'core'
p136
S'arduino'
p137
sS'mcu'
p138
S'atmega328p'
p139
sS'f_cpu'
p140
S'16000000L'
p141
sS'variant'
p142
S'standard'
p143
ssS'bootloader'
p144
(dp145
S'extended_fuses'
p146
S'0x05'
p147
sS'high_fuses'
p148
S'0xDA'
p149
sS'low_fuses'
p150
S'0xFF'
p151
sS'lock_bits'
p152
S'0x0F'
p153
sS'file'
p154
S'ATmegaBOOT_168_atmega328.hex'
p155
sS'path'
p156
S'atmega'
p157
sS'unlock_bits'
p158
S'0x3F'
p159
ssS'name'
p160
S'Arduino Duemilanove w/ ATmega328'
p161
sS'upload'
p162
(dp163
S'speed'
p164
S'57600'
p165
sS'maximum_size'
p166
S'30720'
p167
sS'protocol'
p168
S'arduino'
p169
ssaa(lp170
S'diecimila'
p171
a(dp172
S'build'
p173
(dp174
S'core'
p175
S'arduino'
p176
sS'mcu'
p177
S'atmega168'
p178
sS'f_cpu'
p179
S'16000000L'
p180
sS'variant'
p181
S'standard'
p182
ssS'bootloader'
p183
(dp184
S'extended_fuses'
p185
S'0x00'
p186
sS'high_fuses'
p187
S'0xdd'
p188
sS'low_fuses'
p189
S'0xff'
p190
sS'lock_bits'
p191
S'0x0F'
p192
sS'file'
p193
S'ATmegaBOOT_168_diecimila.hex'
p194
sS'path'
p195
S'atmega'
p196
sS'unlock_bits'
p197
S'0x3F'
p198
ssS'name'
p199
S'Arduino Diecimila or Duemilanove w/ ATmega168'
p200
sS'upload'
p201
(dp202
S'speed'
p203
S'19200'
p204
sS'maximum_size'
p205
S'14336'
p206
sS'protocol'
p207
S'arduino'
p208
ssaa(lp209
S'nano328'
p210
a(dp211
S'build'
p212
(dp213
S'core'
p214
S'arduino'
p215
sS'mcu'
p216
S'atmega328p'
p217
sS'f_cpu'
p218
S'16000000L'
p219
sS'variant'
p220
S'eightanaloginputs'
p221
ssS'bootloader'
p222
(dp223
S'extended_fuses'
p224
S'0x05'
p225
sS'high_fuses'
p226
S'0xDA'
p227
sS'low_fuses'
p228
S'0xFF'
p229
sS'lock_bits'
p230
S'0x0F'
p231
sS'file'
p232
S'ATmegaBOOT_168_atmega328.hex'
p233
sS'path'
p234
S'atmega'
p235
sS'unlock_bits'
p236
S'0x3F'
p237
ssS'name'
p238
S'Arduino Nano w/ ATmega328'
p239
sS'upload'
p240
(dp241
S'speed'
p242
S'57600'
p243
sS'maximum_size'
p244
S'30720'
p245
sS'protocol'
p246
S'arduino'
p247
ssaa(lp248
S'nano'
p249
a(dp250
S'build'
p251
(dp252
S'core'
p253
S'arduino'
p254
sS'mcu'
p255
S'atmega168'
p256
sS'f_cpu'
p257
S'16000000L'
p258
sS'variant'
p259
S'eightanaloginputs'
p260
ssS'bootloader'
p261
(dp262
S'extended_fuses'
p263
S'0x00'
p264
sS'high_fuses'
p265
S'0xdd'
p266
sS'low_fuses'
p267
S'0xff'
p268
sS'lock_bits'
p269
S'0x0F'
p270
sS'file'
p271
S'ATmegaBOOT_168_diecimila.hex'
p272
sS'path'
p273
S'atmega'
p274
sS'unlock_bits'
p275
S'0x3F'
p276
ssS'name'
p277
S'Arduino Nano w/ ATmega168'
p278
sS'upload'
p279
(dp280
S'speed'
p281
S'19200'
p282
sS'maximum_size'
p283
S'14336'
p284
sS'protocol'
p285
S'arduino'
p286
ssaa(lp287
S'mega2560'
p288
a(dp289
S'build'
p290
(dp291
S'core'
p292
S'arduino'
p293
sS'mcu'
p294
S'atmega2560'
p295
sS'f_cpu'
p296
S'16000000L'
p297
sS'variant'
p298
S'mega'
p299
ssS'bootloader'
p300
(dp301
S'extended_fuses'
p302
S'0xFD'
p303
sS'high_fuses'
p304
S'0xD8'
p305
sS'low_fuses'
p306
S'0xFF'
p307
sS'lock_bits'
p308
S'0x0F'
p309
sS'file'
p310
S'stk500boot_v2_mega2560.hex'
p311
sS'path'
p312
S'stk500v2'
p313
sS'unlock_bits'
p314
S'0x3F'
p315
ssS'name'
p316
S'Arduino Mega 2560 or Mega ADK'
p317
sS'upload'
p318
(dp319
S'speed'
p320
S'115200'
p321
sS'maximum_size'
p322
S'258048'
p323
sS'protocol'
p324
S'wiring'
p325
ssaa(lp326
S'mega'
p327
a(dp328
S'build'
p329
(dp330
S'core'
p331
S'arduino'
p332
sS'mcu'
p333
S'atmega1280'
p334
sS'f_cpu'
p335
S'16000000L'
p336
sS'variant'
p337
S'mega'
p338
ssS'bootloader'
p339
(dp340
S'extended_fuses'
p341
S'0xF5'
p342
sS'high_fuses'
p343
S'0xDA'
p344
sS'low_fuses'
p345
S'0xFF'
p346
sS'lock_bits'
p347
S'0x0F'
p348
sS'file'
p349
S'ATmegaBOOT_168_atmega1280.hex'
p350
sS'path'
p351
S'atmega'
p352
sS'unlock_bits'
p353
S'0x3F'
p354
ssS'name'
p355
S'Arduino Mega (ATmega1280)'
p356
sS'upload'
p357
(dp358
S'speed'
p359
S'57600'
p360
sS'maximum_size'
p361
S'126976'
p362
sS'protocol'
p363
S'arduino'
p364
ssaa(lp365
S'leonardo'
p366
a(dp367
S'build'
p368
(dp369
S'core'
p370
S'arduino'
p371
sS'f_cpu'
p372
S'16000000L'
p373
sS'vid'
p374
S'0x2341'
p375
sS'pid'
p376
S'0x8036'
p377
sS'variant'
p378
S'leonardo'
p379
sS'mcu'
p380
S'atmega32u4'
p381
ssS'bootloader'
p382
(dp383
S'extended_fuses'
p384
S'0xcb'
p385
sS'high_fuses'
p386
S'0xd8'
p387
sS'low_fuses'
p388
S'0xff'
p389
sS'lock_bits'
p390
S'0x2F'
p391
sS'file'
p392
S'Caterina-Leonardo.hex'
p393
sS'path'
p394
S'caterina'
p395
sS'unlock_bits'
p396
S'0x3F'
p397
ssS'name'
p398
S'Arduino Leonardo'
p399
sS'upload'
p400
(dp401
S'speed'
p402
S'57600'
p403
sS'maximum_size'
p404
S'28672'
p405
sS'protocol'
p406
S'avr109'
p407
sS'disable_flushing'
p408
S'true'
p409
ssaa(lp410
S'esplora'
p411
a(dp412
S'build'
p413
(dp414
S'core'
p415
S'arduino'
p416
sS'f_cpu'
p417
S'16000000L'
p418
sS'vid'
p419
S'0x2341'
p420
sS'pid'
p421
S'0x803C'
p422
sS'variant'
p423
S'leonardo'
p424
sS'mcu'
p425
S'atmega32u4'
p426
ssS'bootloader'
p427
(dp428
S'extended_fuses'
p429
S'0xcb'
p430
sS'high_fuses'
p431
S'0xd8'
p432
sS'low_fuses'
p433
S'0xff'
p434
sS'lock_bits'
p435
S'0x2F'
p436
sS'file'
p437
S'Caterina-Esplora.hex'
p438
sS'path'
p439
S'caterina'
p440
sS'unlock_bits'
p441
S'0x3F'
p442
ssS'name'
p443
S'Arduino Esplora'
p444
sS'upload'
p445
(dp446
S'speed'
p447
S'57600'
p448
sS'maximum_size'
p449
S'28672'
p450
sS'protocol'
p451
S'avr109'
p452
sS'disable_flushing'
p453
S'true'
p454
ssaa(lp455
S'micro'
p456
a(dp457
S'build'
p458
(dp459
S'core'
p460
S'arduino'
p461
sS'f_cpu'
p462
S'16000000L'
p463
sS'vid'
p464
S'0x2341'
p465
sS'pid'
p466
S'0x8037'
p467
sS'variant'
p468
S'micro'
p469
sS'mcu'
p470
S'atmega32u4'
p471
ssS'bootloader'
p472
(dp473
S'extended_fuses'
p474
S'0xcb'
p475
sS'high_fuses'
p476
S'0xd8'
p477
sS'low_fuses'
p478
S'0xff'
p479
sS'lock_bits'
p480
S'0x2F'
p481
sS'file'
p482
S'Caterina-Micro.hex'
p483
sS'path'
p484
S'caterina'
p485
sS'unlock_bits'
p486
S'0x3F'
p487
ssS'name'
p488
S'Arduino Micro'
p489
sS'upload'
p490
(dp491
S'speed'
p492
S'57600'
p493
sS'maximum_size'
p494
S'28672'
p495
sS'protocol'
p496
S'avr109'
p497
sS'disable_flushing'
p498
S'true'
p499
ssaa(lp500
S'mini328'
p501
a(dp502
S'build'
p503
(dp504
S'core'
p505
S'arduino'
p506
sS'mcu'
p507
S'atmega328p'
p508
sS'f_cpu'
p509
S'16000000L'
p510
sS'variant'
p511
S'eightanaloginputs'
p512
ssS'bootloader'
p513
(dp514
S'extended_fuses'
p515
S'0x05'
p516
sS'high_fuses'
p517
S'0xd8'
p518
sS'low_fuses'
p519
S'0xff'
p520
sS'lock_bits'
p521
S'0x0F'
p522
sS'file'
p523
S'optiboot_atmega328-Mini.hex'
p524
sS'path'
p525
S'optiboot'
p526
sS'unlock_bits'
p527
S'0x3F'
p528
ssS'name'
p529
S'Arduino Mini w/ ATmega328'
p530
sS'upload'
p531
(dp532
S'speed'
p533
S'115200'
p534
sS'maximum_size'
p535
S'28672'
p536
sS'protocol'
p537
S'arduino'
p538
ssaa(lp539
S'mini'
p540
a(dp541
S'build'
p542
(dp543
S'core'
p544
S'arduino'
p545
sS'mcu'
p546
S'atmega168'
p547
sS'f_cpu'
p548
S'16000000L'
p549
sS'variant'
p550
S'eightanaloginputs'
p551
ssS'bootloader'
p552
(dp553
S'extended_fuses'
p554
S'0x00'
p555
sS'high_fuses'
p556
S'0xdd'
p557
sS'low_fuses'
p558
S'0xff'
p559
sS'lock_bits'
p560
S'0x0F'
p561
sS'file'
p562
S'ATmegaBOOT_168_ng.hex'
p563
sS'path'
p564
S'atmega'
p565
sS'unlock_bits'
p566
S'0x3F'
p567
ssS'name'
p568
S'Arduino Mini w/ ATmega168'
p569
sS'upload'
p570
(dp571
S'speed'
p572
S'19200'
p573
sS'maximum_size'
p574
S'14336'
p575
sS'protocol'
p576
S'arduino'
p577
ssaa(lp578
S'ethernet'
p579
a(dp580
S'build'
p581
(dp582
S'f_cpu'
p583
S'16000000L'
p584
sS'mcu'
p585
S'atmega328p'
p586
sS'variant'
p587
S'standard'
p588
sS'core'
p589
S'arduino'
p590
ssS'bootloader'
p591
(dp592
S'extended_fuses'
p593
S'0x05'
p594
sS'high_fuses'
p595
S'0xde'
p596
sS'low_fuses'
p597
S'0xff'
p598
sS'lock_bits'
p599
S'0x0F'
p600
sS'file'
p601
S'optiboot_atmega328.hex'
p602
sS'path'
p603
S'optiboot'
p604
sS'unlock_bits'
p605
S'0x3F'
p606
ssS'name'
p607
S'Arduino Ethernet'
p608
sS'upload'
p609
(dp610
S'speed'
p611
S'115200'
p612
sS'maximum_size'
p613
S'32256'
p614
sS'protocol'
p615
S'arduino'
p616
ssaa(lp617
S'fio'
p618
a(dp619
S'build'
p620
(dp621
S'core'
p622
S'arduino'
p623
sS'mcu'
p624
S'atmega328p'
p625
sS'f_cpu'
p626
S'8000000L'
p627
sS'variant'
p628
S'eightanaloginputs'
p629
ssS'bootloader'
p630
(dp631
S'extended_fuses'
p632
S'0x05'
p633
sS'high_fuses'
p634
S'0xDA'
p635
sS'low_fuses'
p636
S'0xFF'
p637
sS'lock_bits'
p638
S'0x0F'
p639
sS'file'
p640
S'ATmegaBOOT_168_atmega328_pro_8MHz.hex'
p641
sS'path'
p642
S'arduino:atmega'
p643
sS'unlock_bits'
p644
S'0x3F'
p645
ssS'name'
p646
S'Arduino Fio'
p647
sS'upload'
p648
(dp649
S'speed'
p650
S'57600'
p651
sS'maximum_size'
p652
S'30720'
p653
sS'protocol'
p654
S'arduino'
p655
ssaa(lp656
S'bt328'
p657
a(dp658
S'build'
p659
(dp660
S'core'
p661
S'arduino'
p662
sS'mcu'
p663
S'atmega328p'
p664
sS'f_cpu'
p665
S'16000000L'
p666
sS'variant'
p667
S'eightanaloginputs'
p668
ssS'bootloader'
p669
(dp670
S'extended_fuses'
p671
S'0x05'
p672
sS'high_fuses'
p673
S'0xd8'
p674
sS'low_fuses'
p675
S'0xff'
p676
sS'lock_bits'
p677
S'0x0F'
p678
sS'file'
p679
S'ATmegaBOOT_168_atmega328_bt.hex'
p680
sS'path'
p681
S'bt'
p682
sS'unlock_bits'
p683
S'0x3F'
p684
ssS'name'
p685
S'Arduino BT w/ ATmega328'
p686
sS'upload'
p687
(dp688
S'speed'
p689
S'19200'
p690
sS'maximum_size'
p691
S'28672'
p692
sS'protocol'
p693
S'arduino'
p694
sS'disable_flushing'
p695
S'true'
p696
ssaa(lp697
S'bt'
p698
a(dp699
S'build'
p700
(dp701
S'core'
p702
S'arduino'
p703
sS'mcu'
p704
S'atmega168'
p705
sS'f_cpu'
p706
S'16000000L'
p707
sS'variant'
p708
S'eightanaloginputs'
p709
ssS'bootloader'
p710
(dp711
S'extended_fuses'
p712
S'0x00'
p713
sS'high_fuses'
p714
S'0xdd'
p715
sS'low_fuses'
p716
S'0xff'
p717
sS'lock_bits'
p718
S'0x0F'
p719
sS'file'
p720
S'ATmegaBOOT_168.hex'
p721
sS'path'
p722
S'bt'
p723
sS'unlock_bits'
p724
S'0x3F'
p725
ssS'name'
p726
S'Arduino BT w/ ATmega168'
p727
sS'upload'
p728
(dp729
S'speed'
p730
S'19200'
p731
sS'maximum_size'
p732
S'14336'
p733
sS'protocol'
p734
S'arduino'
p735
sS'disable_flushing'
p736
S'true'
p737
ssaa(lp738
S'LilyPadUSB'
p739
a(dp740
S'build'
p741
(dp742
S'core'
p743
S'arduino'
p744
sS'f_cpu'
p745
S'8000000L'
p746
sS'vid'
p747
S'0x1B4F'
p748
sS'pid'
p749
S'0x9208'
p750
sS'variant'
p751
S'leonardo'
p752
sS'mcu'
p753
S'atmega32u4'
p754
ssS'bootloader'
p755
(dp756
S'extended_fuses'
p757
S'0xce'
p758
sS'high_fuses'
p759
S'0xd8'
p760
sS'low_fuses'
p761
S'0xff'
p762
sS'lock_bits'
p763
S'0x2F'
p764
sS'file'
p765
S'Caterina-LilyPadUSB.hex'
p766
sS'path'
p767
S'caterina-LilyPadUSB'
p768
sS'unlock_bits'
p769
S'0x3F'
p770
ssS'name'
p771
S'LilyPad Arduino USB'
p772
sS'upload'
p773
(dp774
S'speed'
p775
S'57600'
p776
sS'maximum_size'
p777
S'28672'
p778
sS'protocol'
p779
S'avr109'
p780
sS'disable_flushing'
p781
S'true'
p782
ssaa(lp783
S'lilypad328'
p784
a(dp785
S'build'
p786
(dp787
S'core'
p788
S'arduino'
p789
sS'mcu'
p790
S'atmega328p'
p791
sS'f_cpu'
p792
S'8000000L'
p793
sS'variant'
p794
S'standard'
p795
ssS'bootloader'
p796
(dp797
S'extended_fuses'
p798
S'0x05'
p799
sS'high_fuses'
p800
S'0xDA'
p801
sS'low_fuses'
p802
S'0xFF'
p803
sS'lock_bits'
p804
S'0x0F'
p805
sS'file'
p806
S'ATmegaBOOT_168_atmega328_pro_8MHz.hex'
p807
sS'path'
p808
S'atmega'
p809
sS'unlock_bits'
p810
S'0x3F'
p811
ssS'name'
p812
S'LilyPad Arduino w/ ATmega328'
p813
sS'upload'
p814
(dp815
S'speed'
p816
S'57600'
p817
sS'maximum_size'
p818
S'30720'
p819
sS'protocol'
p820
S'arduino'
p821
ssaa(lp822
S'lilypad'
p823
a(dp824
S'build'
p825
(dp826
S'core'
p827
S'arduino'
p828
sS'mcu'
p829
S'atmega168'
p830
sS'f_cpu'
p831
S'8000000L'
p832
sS'variant'
p833
S'standard'
p834
ssS'bootloader'
p835
(dp836
S'extended_fuses'
p837
S'0x00'
p838
sS'high_fuses'
p839
S'0xdd'
p840
sS'low_fuses'
p841
S'0xe2'
p842
sS'lock_bits'
p843
S'0x0F'
p844
sS'file'
p845
S'LilyPadBOOT_168.hex'
p846
sS'path'
p847
S'lilypad'
p848
sS'unlock_bits'
p849
S'0x3F'
p850
ssS'name'
p851
S'LilyPad Arduino w/ ATmega168'
p852
sS'upload'
p853
(dp854
S'speed'
p855
S'19200'
p856
sS'maximum_size'
p857
S'14336'
p858
sS'protocol'
p859
S'arduino'
p860
ssaa(lp861
S'pro5v328'
p862
a(dp863
S'build'
p864
(dp865
S'core'
p866
S'arduino'
p867
sS'mcu'
p868
S'atmega328p'
p869
sS'f_cpu'
p870
S'16000000L'
p871
sS'variant'
p872
S'standard'
p873
ssS'bootloader'
p874
(dp875
S'extended_fuses'
p876
S'0x05'
p877
sS'high_fuses'
p878
S'0xDA'
p879
sS'low_fuses'
p880
S'0xFF'
p881
sS'lock_bits'
p882
S'0x0F'
p883
sS'file'
p884
S'ATmegaBOOT_168_atmega328.hex'
p885
sS'path'
p886
S'atmega'
p887
sS'unlock_bits'
p888
S'0x3F'
p889
ssS'name'
p890
S'Arduino Pro or Pro Mini (5V, 16 MHz) w/ ATmega328'
p891
sS'upload'
p892
(dp893
S'speed'
p894
S'57600'
p895
sS'maximum_size'
p896
S'30720'
p897
sS'protocol'
p898
S'arduino'
p899
ssaa(lp900
S'pro5v'
p901
a(dp902
S'build'
p903
(dp904
S'core'
p905
S'arduino'
p906
sS'mcu'
p907
S'atmega168'
p908
sS'f_cpu'
p909
S'16000000L'
p910
sS'variant'
p911
S'standard'
p912
ssS'bootloader'
p913
(dp914
S'extended_fuses'
p915
S'0x00'
p916
sS'high_fuses'
p917
S'0xdd'
p918
sS'low_fuses'
p919
S'0xff'
p920
sS'lock_bits'
p921
S'0x0F'
p922
sS'file'
p923
S'ATmegaBOOT_168_diecimila.hex'
p924
sS'path'
p925
S'atmega'
p926
sS'unlock_bits'
p927
S'0x3F'
p928
ssS'name'
p929
S'Arduino Pro or Pro Mini (5V, 16 MHz) w/ ATmega168'
p930
sS'upload'
p931
(dp932
S'speed'
p933
S'19200'
p934
sS'maximum_size'
p935
S'14336'
p936
sS'protocol'
p937
S'arduino'
p938
ssaa(lp939
S'pro328'
p940
a(dp941
S'build'
p942
(dp943
S'core'
p944
S'arduino'
p945
sS'mcu'
p946
S'atmega328p'
p947
sS'f_cpu'
p948
S'8000000L'
p949
sS'variant'
p950
S'standard'
p951
ssS'bootloader'
p952
(dp953
S'extended_fuses'
p954
S'0x05'
p955
sS'high_fuses'
p956
S'0xDA'
p957
sS'low_fuses'
p958
S'0xFF'
p959
sS'lock_bits'
p960
S'0x0F'
p961
sS'file'
p962
S'ATmegaBOOT_168_atmega328_pro_8MHz.hex'
p963
sS'path'
p964
S'atmega'
p965
sS'unlock_bits'
p966
S'0x3F'
p967
ssS'name'
p968
S'Arduino Pro or Pro Mini (3.3V, 8 MHz) w/ ATmega328'
p969
sS'upload'
p970
(dp971
S'speed'
p972
S'57600'
p973
sS'maximum_size'
p974
S'30720'
p975
sS'protocol'
p976
S'arduino'
p977
ssaa(lp978
S'pro'
p979
a(dp980
S'build'
p981
(dp982
S'core'
p983
S'arduino'
p984
sS'mcu'
p985
S'atmega168'
p986
sS'f_cpu'
p987
S'8000000L'
p988
sS'variant'
p989
S'standard'
p990
ssS'bootloader'
p991
(dp992
S'extended_fuses'
p993
S'0x00'
p994
sS'high_fuses'
p995
S'0xdd'
p996
sS'low_fuses'
p997
S'0xc6'
p998
sS'lock_bits'
p999
S'0x0F'
p1000
sS'file'
p1001
S'ATmegaBOOT_168_pro_8MHz.hex'
p1002
sS'path'
p1003
S'atmega'
p1004
sS'unlock_bits'
p1005
S'0x3F'
p1006
ssS'name'
p1007
S'Arduino Pro or Pro Mini (3.3V, 8 MHz) w/ ATmega168'
p1008
sS'upload'
p1009
(dp1010
S'speed'
p1011
S'19200'
p1012
sS'maximum_size'
p1013
S'14336'
p1014
sS'protocol'
p1015
S'arduino'
p1016
ssaa(lp1017
S'atmega168'
p1018
a(dp1019
S'build'
p1020
(dp1021
S'core'
p1022
S'arduino'
p1023
sS'mcu'
p1024
S'atmega168'
p1025
sS'f_cpu'
p1026
S'16000000L'
p1027
sS'variant'
p1028
S'standard'
p1029
ssS'bootloader'
p1030
(dp1031
S'extended_fuses'
p1032
S'0x00'
p1033
sS'high_fuses'
p1034
S'0xdd'
p1035
sS'low_fuses'
p1036
S'0xff'
p1037
sS'lock_bits'
p1038
S'0x0F'
p1039
sS'file'
p1040
S'ATmegaBOOT_168_ng.hex'
p1041
sS'path'
p1042
S'atmega'
p1043
sS'unlock_bits'
p1044
S'0x3F'
p1045
ssS'name'
p1046
S'Arduino NG or older w/ ATmega168'
p1047
sS'upload'
p1048
(dp1049
S'speed'
p1050
S'19200'
p1051
sS'maximum_size'
p1052
S'14336'
p1053
sS'protocol'
p1054
S'arduino'
p1055
ssaa(lp1056
S'atmega8'
p1057
a(dp1058
S'build'
p1059
(dp1060
S'core'
p1061
S'arduino'
p1062
sS'mcu'
p1063
S'atmega8'
p1064
sS'f_cpu'
p1065
S'16000000L'
p1066
sS'variant'
p1067
S'standard'
p1068
ssS'bootloader'
p1069
(dp1070
S'high_fuses'
p1071
S'0xca'
p1072
sS'low_fuses'
p1073
S'0xdf'
p1074
sS'lock_bits'
p1075
S'0x0F'
p1076
sS'file'
p1077
S'ATmegaBOOT-prod-firmware-2009-11-07.hex'
p1078
sS'path'
p1079
S'atmega8'
p1080
sS'unlock_bits'
p1081
S'0x3F'
p1082
ssS'name'
p1083
S'Arduino NG or older w/ ATmega8'
p1084
sS'upload'
p1085
(dp1086
S'speed'
p1087
S'19200'
p1088
sS'maximum_size'
p1089
S'7168'
p1090
sS'protocol'
p1091
S'arduino'
p1092
ssaa(lp1093
S'robotControl'
p1094
a(dp1095
S'build'
p1096
(dp1097
S'core'
p1098
S'robot'
p1099
sS'f_cpu'
p1100
S'16000000L'
p1101
sS'vid'
p1102
S'0x2341'
p1103
sS'pid'
p1104
S'0x8038'
p1105
sS'variant'
p1106
S'robot_control'
p1107
sS'mcu'
p1108
S'atmega32u4'
p1109
ssS'bootloader'
p1110
(dp1111
S'extended_fuses'
p1112
S'0xcb'
p1113
sS'high_fuses'
p1114
S'0xd8'
p1115
sS'low_fuses'
p1116
S'0xff'
p1117
sS'lock_bits'
p1118
S'0x2F'
p1119
sS'file'
p1120
S'Caterina-Robot-Control.hex'
p1121
sS'path'
p1122
S'caterina-Arduino_Robot'
p1123
sS'unlock_bits'
p1124
S'0x3F'
p1125
ssS'name'
p1126
S'Arduino Robot Control'
p1127
sS'upload'
p1128
(dp1129
S'speed'
p1130
S'57600'
p1131
sS'maximum_size'
p1132
S'28672'
p1133
sS'protocol'
p1134
S'avr109'
p1135
sS'disable_flushing'
p1136
S'true'
p1137
ssaa(lp1138
S'robotMotor'
p1139
a(dp1140
S'build'
p1141
(dp1142
S'core'
p1143
S'robot'
p1144
sS'f_cpu'
p1145
S'16000000L'
p1146
sS'vid'
p1147
S'0x2341'
p1148
sS'pid'
p1149
S'0x8039'
p1150
sS'variant'
p1151
S'robot_motor'
p1152
sS'mcu'
p1153
S'atmega32u4'
p1154
ssS'bootloader'
p1155
(dp1156
S'extended_fuses'
p1157
S'0xcb'
p1158
sS'high_fuses'
p1159
S'0xd8'
p1160
sS'low_fuses'
p1161
S'0xff'
p1162
sS'lock_bits'
p1163
S'0x2F'
p1164
sS'file'
p1165
S'Caterina-Robot-Motor.hex'
p1166
sS'path'
p1167
S'caterina-Arduino_Robot'
p1168
sS'unlock_bits'
p1169
S'0x3F'
p1170
ssS'name'
p1171
S'Arduino Robot Motor'
p1172
sS'upload'
p1173
(dp1174
S'speed'
p1175
S'57600'
p1176
sS'maximum_size'
p1177
S'28672'
p1178
sS'protocol'
p1179
S'avr109'
p1180
sS'disable_flushing'
p1181
S'true'
p1182
ssaatp1183
Rp1184
(dp1185
S'default'
p1186
S'uno'
p1187
sbtp1188
a(S'cxx'
p1189
S'/Applications/Arduino.app/Contents/Resources/Java/hardware/tools/avr/bin/avr-g++'
p1190
tp1191
a.